; ModuleID = '../../build/test.cpp'
source_filename = "../../build/test.cpp"
target datalayout = "e-m:e-p270:32:32-p271:32:32-p272:64:64-i64:64-i128:128-f80:128-n8:16:32:64-S128"
target triple = "x86_64-pc-linux-gnu"

%"class.std::ios_base::Init" = type { i8 }
%"class.std::basic_ostream" = type { ptr, %"class.std::basic_ios" }
%"class.std::basic_ios" = type { %"class.std::ios_base", ptr, i8, i8, ptr, ptr, ptr, ptr }
%"class.std::ios_base" = type { ptr, i64, i64, i32, i32, i32, ptr, %"struct.std::ios_base::_Words", [8 x %"struct.std::ios_base::_Words"], i32, ptr, %"class.std::locale" }
%"struct.std::ios_base::_Words" = type { ptr, i64 }
%"class.std::locale" = type { ptr }
%class.A = type { i32, i32, double }
%"class.std::__cxx11::basic_string" = type { %"struct.std::__cxx11::basic_string<char>::_Alloc_hider", i64, %union.anon }
%"struct.std::__cxx11::basic_string<char>::_Alloc_hider" = type { ptr }
%union.anon = type { i64, [8 x i8] }
%"class.std::allocator" = type { i8 }

$_ZN1AC2Eii = comdat any

$_ZNSt7__cxx119to_stringEi = comdat any

$_ZNSt8__detail14__to_chars_lenIjEEjT_i = comdat any

$_ZNSt7__cxx1112basic_stringIcSt11char_traitsIcESaIcEEC2IS3_EEmcRKS3_ = comdat any

$_ZNSt8__detail18__to_chars_10_implIjEEvPcjT_ = comdat any

$_ZNSt7__cxx1112basic_stringIcSt11char_traitsIcESaIcEE12_Alloc_hiderD2Ev = comdat any

$_ZZNSt8__detail18__to_chars_10_implIjEEvPcjT_E8__digits = comdat any

@_ZStL8__ioinit = internal global %"class.std::ios_base::Init" zeroinitializer, align 1
@__dso_handle = external hidden global i8
@_ZSt4cout = external global %"class.std::basic_ostream", align 8
@.str = private unnamed_addr constant [14 x i8] c"hello world1\0A\00", align 1
@.str.1 = private unnamed_addr constant [4 x i8] c"%p\0A\00", align 1
@.str.2 = private unnamed_addr constant [13 x i8] c"hello world2\00", align 1
@.str.3 = private unnamed_addr constant [13 x i8] c"hello world3\00", align 1
@_ZZNSt8__detail18__to_chars_10_implIjEEvPcjT_E8__digits = linkonce_odr dso_local constant [201 x i8] c"00010203040506070809101112131415161718192021222324252627282930313233343536373839404142434445464748495051525354555657585960616263646566676869707172737475767778798081828384858687888990919293949596979899\00", comdat, align 16
@llvm.global_ctors = appending global [1 x { i32, ptr, ptr }] [{ i32, ptr, ptr } { i32 65535, ptr @_GLOBAL__sub_I_test.cpp, ptr null }]

; Function Attrs: noinline uwtable
define internal void @__cxx_global_var_init() #0 section ".text.startup" {
  call void @_ZNSt8ios_base4InitC1Ev(ptr noundef nonnull align 1 dereferenceable(1) @_ZStL8__ioinit)
  %1 = call i32 @__cxa_atexit(ptr @_ZNSt8ios_base4InitD1Ev, ptr @_ZStL8__ioinit, ptr @__dso_handle) #3
  ret void
}

declare void @_ZNSt8ios_base4InitC1Ev(ptr noundef nonnull align 1 dereferenceable(1)) unnamed_addr #1

; Function Attrs: nounwind
declare void @_ZNSt8ios_base4InitD1Ev(ptr noundef nonnull align 1 dereferenceable(1)) unnamed_addr #2

; Function Attrs: nounwind
declare i32 @__cxa_atexit(ptr, ptr, ptr) #3

; Function Attrs: mustprogress noinline optnone uwtable
define dso_local { i64, double } @_Z7returnAii(i32 noundef %0, i32 noundef %1) #4 {
  %3 = alloca %class.A, align 8
  %4 = alloca i32, align 4
  %5 = alloca i32, align 4
  store i32 %0, ptr %4, align 4
  store i32 %1, ptr %5, align 4
  %6 = load i32, ptr %4, align 4
  %7 = load i32, ptr %5, align 4
  call void @_ZN1AC2Eii(ptr noundef nonnull align 8 dereferenceable(16) %3, i32 noundef %6, i32 noundef %7)
  %8 = load { i64, double }, ptr %3, align 8
  ret { i64, double } %8
}

; Function Attrs: mustprogress noinline nounwind optnone uwtable
define linkonce_odr dso_local void @_ZN1AC2Eii(ptr noundef nonnull align 8 dereferenceable(16) %0, i32 noundef %1, i32 noundef %2) unnamed_addr #5 comdat align 2 {
  %4 = alloca ptr, align 8
  %5 = alloca i32, align 4
  %6 = alloca i32, align 4
  store ptr %0, ptr %4, align 8
  store i32 %1, ptr %5, align 4
  store i32 %2, ptr %6, align 4
  %7 = load ptr, ptr %4, align 8
  %8 = getelementptr inbounds %class.A, ptr %7, i32 0, i32 2
  store double 0.000000e+00, ptr %8, align 8
  %9 = load i32, ptr %5, align 4
  %10 = getelementptr inbounds %class.A, ptr %7, i32 0, i32 0
  store i32 %9, ptr %10, align 8
  %11 = load i32, ptr %6, align 4
  %12 = getelementptr inbounds %class.A, ptr %7, i32 0, i32 1
  store i32 %11, ptr %12, align 4
  ret void
}

; Function Attrs: mustprogress noinline nounwind optnone uwtable
define dso_local noundef nonnull align 8 dereferenceable(8) ptr @_Z6getObjISoERT_v() #5 {
  ret ptr @_ZSt4cout
}

; Function Attrs: mustprogress noinline norecurse optnone uwtable
define dso_local noundef i32 @main() #6 {
  %1 = alloca i32, align 4
  %2 = alloca ptr, align 8
  %3 = alloca ptr, align 8
  %4 = alloca i32, align 4
  %5 = alloca %class.A, align 8
  %6 = alloca %"class.std::__cxx11::basic_string", align 8
  %7 = alloca ptr, align 8
  store i32 0, ptr %1, align 4
  store ptr @_ZStlsISt11char_traitsIcEERSt13basic_ostreamIcT_ES5_PKc, ptr %2, align 8
  %8 = load ptr, ptr %2, align 8
  %9 = call noundef nonnull align 8 dereferenceable(8) ptr %8(ptr noundef nonnull align 8 dereferenceable(8) @_ZSt4cout, ptr noundef @.str)
  %10 = load ptr, ptr %2, align 8
  store ptr %10, ptr %3, align 8
  %11 = load ptr, ptr %3, align 8
  %12 = call i32 (ptr, ...) @printf(ptr noundef @.str.1, ptr noundef %11)
  store i32 2, ptr %4, align 4
  %13 = call { i64, double } @_Z7returnAii(i32 noundef 1, i32 noundef 2)
  %14 = getelementptr inbounds { i64, double }, ptr %5, i32 0, i32 0
  %15 = extractvalue { i64, double } %13, 0
  store i64 %15, ptr %14, align 8
  %16 = getelementptr inbounds { i64, double }, ptr %5, i32 0, i32 1
  %17 = extractvalue { i64, double } %13, 1
  store double %17, ptr %16, align 8
  %18 = load i32, ptr %4, align 4
  call void @_ZNSt7__cxx119to_stringEi(ptr dead_on_unwind writable sret(%"class.std::__cxx11::basic_string") align 8 %6, i32 noundef %18)
  call void @_ZNSt7__cxx1112basic_stringIcSt11char_traitsIcESaIcEED1Ev(ptr noundef nonnull align 8 dereferenceable(32) %6) #3
  %19 = call noundef nonnull align 8 dereferenceable(8) ptr @_ZStlsISt11char_traitsIcEERSt13basic_ostreamIcT_ES5_PKc(ptr noundef nonnull align 8 dereferenceable(8) @_ZSt4cout, ptr noundef @.str.2)
  %20 = call noundef nonnull align 8 dereferenceable(8) ptr @_ZNSolsEPFRSoS_E(ptr noundef nonnull align 8 dereferenceable(8) %19, ptr noundef @_ZSt4endlIcSt11char_traitsIcEERSt13basic_ostreamIT_T0_ES6_)
  %21 = call noundef nonnull align 8 dereferenceable(8) ptr @_Z6getObjISoERT_v()
  store ptr %21, ptr %7, align 8
  %22 = load ptr, ptr %7, align 8
  %23 = call noundef nonnull align 8 dereferenceable(8) ptr @_ZStlsISt11char_traitsIcEERSt13basic_ostreamIcT_ES5_PKc(ptr noundef nonnull align 8 dereferenceable(8) %22, ptr noundef @.str.3)
  %24 = call noundef nonnull align 8 dereferenceable(8) ptr @_ZNSolsEPFRSoS_E(ptr noundef nonnull align 8 dereferenceable(8) %23, ptr noundef @_ZSt4endlIcSt11char_traitsIcEERSt13basic_ostreamIT_T0_ES6_)
  %25 = load ptr, ptr %7, align 8
  %26 = call i32 (ptr, ...) @printf(ptr noundef @.str.1, ptr noundef %25)
  %27 = call i32 (ptr, ...) @printf(ptr noundef @.str.1, ptr noundef @_ZSt4cout)
  ret i32 2
}

declare noundef nonnull align 8 dereferenceable(8) ptr @_ZStlsISt11char_traitsIcEERSt13basic_ostreamIcT_ES5_PKc(ptr noundef nonnull align 8 dereferenceable(8), ptr noundef) #1

declare i32 @printf(ptr noundef, ...) #1

; Function Attrs: mustprogress noinline optnone uwtable
define linkonce_odr dso_local void @_ZNSt7__cxx119to_stringEi(ptr dead_on_unwind noalias writable sret(%"class.std::__cxx11::basic_string") align 8 %0, i32 noundef %1) #4 comdat personality ptr @__gxx_personality_v0 {
  %3 = alloca ptr, align 8
  %4 = alloca i32, align 4
  %5 = alloca i8, align 1
  %6 = alloca i32, align 4
  %7 = alloca i32, align 4
  %8 = alloca i1, align 1
  %9 = alloca %"class.std::allocator", align 1
  %10 = alloca ptr, align 8
  %11 = alloca i32, align 4
  store ptr %0, ptr %3, align 8
  store i32 %1, ptr %4, align 4
  %12 = load i32, ptr %4, align 4
  %13 = icmp slt i32 %12, 0
  %14 = zext i1 %13 to i8
  store i8 %14, ptr %5, align 1
  %15 = load i8, ptr %5, align 1
  %16 = trunc i8 %15 to i1
  br i1 %16, label %17, label %21

17:                                               ; preds = %2
  %18 = load i32, ptr %4, align 4
  %19 = xor i32 %18, -1
  %20 = add i32 %19, 1
  br label %23

21:                                               ; preds = %2
  %22 = load i32, ptr %4, align 4
  br label %23

23:                                               ; preds = %21, %17
  %24 = phi i32 [ %20, %17 ], [ %22, %21 ]
  store i32 %24, ptr %6, align 4
  %25 = load i32, ptr %6, align 4
  %26 = call noundef i32 @_ZNSt8__detail14__to_chars_lenIjEEjT_i(i32 noundef %25, i32 noundef 10) #3
  store i32 %26, ptr %7, align 4
  store i1 false, ptr %8, align 1
  %27 = load i8, ptr %5, align 1
  %28 = trunc i8 %27 to i1
  %29 = zext i1 %28 to i32
  %30 = load i32, ptr %7, align 4
  %31 = add i32 %29, %30
  %32 = zext i32 %31 to i64
  call void @_ZNSaIcEC1Ev(ptr noundef nonnull align 1 dereferenceable(1) %9) #3
  invoke void @_ZNSt7__cxx1112basic_stringIcSt11char_traitsIcESaIcEEC2IS3_EEmcRKS3_(ptr noundef nonnull align 8 dereferenceable(32) %0, i64 noundef %32, i8 noundef signext 45, ptr noundef nonnull align 1 dereferenceable(1) %9)
          to label %33 unwind label %42

33:                                               ; preds = %23
  call void @_ZNSaIcED1Ev(ptr noundef nonnull align 1 dereferenceable(1) %9) #3
  %34 = load i8, ptr %5, align 1
  %35 = trunc i8 %34 to i1
  %36 = zext i1 %35 to i64
  %37 = invoke noundef nonnull align 1 dereferenceable(1) ptr @_ZNSt7__cxx1112basic_stringIcSt11char_traitsIcESaIcEEixEm(ptr noundef nonnull align 8 dereferenceable(32) %0, i64 noundef %36)
          to label %38 unwind label %46

38:                                               ; preds = %33
  %39 = load i32, ptr %7, align 4
  %40 = load i32, ptr %6, align 4
  call void @_ZNSt8__detail18__to_chars_10_implIjEEvPcjT_(ptr noundef %37, i32 noundef %39, i32 noundef %40) #3
  store i1 true, ptr %8, align 1
  %41 = load i1, ptr %8, align 1
  br i1 %41, label %51, label %50

42:                                               ; preds = %23
  %43 = landingpad { ptr, i32 }
          cleanup
  %44 = extractvalue { ptr, i32 } %43, 0
  store ptr %44, ptr %10, align 8
  %45 = extractvalue { ptr, i32 } %43, 1
  store i32 %45, ptr %11, align 4
  call void @_ZNSaIcED1Ev(ptr noundef nonnull align 1 dereferenceable(1) %9) #3
  br label %52

46:                                               ; preds = %33
  %47 = landingpad { ptr, i32 }
          cleanup
  %48 = extractvalue { ptr, i32 } %47, 0
  store ptr %48, ptr %10, align 8
  %49 = extractvalue { ptr, i32 } %47, 1
  store i32 %49, ptr %11, align 4
  call void @_ZNSt7__cxx1112basic_stringIcSt11char_traitsIcESaIcEED1Ev(ptr noundef nonnull align 8 dereferenceable(32) %0) #3
  br label %52

50:                                               ; preds = %38
  call void @_ZNSt7__cxx1112basic_stringIcSt11char_traitsIcESaIcEED1Ev(ptr noundef nonnull align 8 dereferenceable(32) %0) #3
  br label %51

51:                                               ; preds = %50, %38
  ret void

52:                                               ; preds = %46, %42
  %53 = load ptr, ptr %10, align 8
  %54 = load i32, ptr %11, align 4
  %55 = insertvalue { ptr, i32 } poison, ptr %53, 0
  %56 = insertvalue { ptr, i32 } %55, i32 %54, 1
  resume { ptr, i32 } %56
}

; Function Attrs: nounwind
declare void @_ZNSt7__cxx1112basic_stringIcSt11char_traitsIcESaIcEED1Ev(ptr noundef nonnull align 8 dereferenceable(32)) unnamed_addr #2

declare noundef nonnull align 8 dereferenceable(8) ptr @_ZNSolsEPFRSoS_E(ptr noundef nonnull align 8 dereferenceable(8), ptr noundef) #1

declare noundef nonnull align 8 dereferenceable(8) ptr @_ZSt4endlIcSt11char_traitsIcEERSt13basic_ostreamIT_T0_ES6_(ptr noundef nonnull align 8 dereferenceable(8)) #1

; Function Attrs: mustprogress noinline nounwind optnone uwtable
define linkonce_odr dso_local noundef i32 @_ZNSt8__detail14__to_chars_lenIjEEjT_i(i32 noundef %0, i32 noundef %1) #5 comdat {
  %3 = alloca i32, align 4
  %4 = alloca i32, align 4
  %5 = alloca i32, align 4
  %6 = alloca i32, align 4
  %7 = alloca i32, align 4
  %8 = alloca i32, align 4
  %9 = alloca i64, align 8
  store i32 %0, ptr %4, align 4
  store i32 %1, ptr %5, align 4
  store i32 1, ptr %6, align 4
  %10 = load i32, ptr %5, align 4
  %11 = load i32, ptr %5, align 4
  %12 = mul nsw i32 %10, %11
  store i32 %12, ptr %7, align 4
  %13 = load i32, ptr %7, align 4
  %14 = load i32, ptr %5, align 4
  %15 = mul i32 %13, %14
  store i32 %15, ptr %8, align 4
  %16 = load i32, ptr %8, align 4
  %17 = load i32, ptr %5, align 4
  %18 = mul i32 %16, %17
  %19 = zext i32 %18 to i64
  store i64 %19, ptr %9, align 8
  br label %20

20:                                               ; preds = %48, %2
  %21 = load i32, ptr %4, align 4
  %22 = load i32, ptr %5, align 4
  %23 = icmp ult i32 %21, %22
  br i1 %23, label %24, label %26

24:                                               ; preds = %20
  %25 = load i32, ptr %6, align 4
  store i32 %25, ptr %3, align 4
  br label %56

26:                                               ; preds = %20
  %27 = load i32, ptr %4, align 4
  %28 = load i32, ptr %7, align 4
  %29 = icmp ult i32 %27, %28
  br i1 %29, label %30, label %33

30:                                               ; preds = %26
  %31 = load i32, ptr %6, align 4
  %32 = add i32 %31, 1
  store i32 %32, ptr %3, align 4
  br label %56

33:                                               ; preds = %26
  %34 = load i32, ptr %4, align 4
  %35 = load i32, ptr %8, align 4
  %36 = icmp ult i32 %34, %35
  br i1 %36, label %37, label %40

37:                                               ; preds = %33
  %38 = load i32, ptr %6, align 4
  %39 = add i32 %38, 2
  store i32 %39, ptr %3, align 4
  br label %56

40:                                               ; preds = %33
  %41 = load i32, ptr %4, align 4
  %42 = zext i32 %41 to i64
  %43 = load i64, ptr %9, align 8
  %44 = icmp ult i64 %42, %43
  br i1 %44, label %45, label %48

45:                                               ; preds = %40
  %46 = load i32, ptr %6, align 4
  %47 = add i32 %46, 3
  store i32 %47, ptr %3, align 4
  br label %56

48:                                               ; preds = %40
  %49 = load i64, ptr %9, align 8
  %50 = load i32, ptr %4, align 4
  %51 = zext i32 %50 to i64
  %52 = udiv i64 %51, %49
  %53 = trunc i64 %52 to i32
  store i32 %53, ptr %4, align 4
  %54 = load i32, ptr %6, align 4
  %55 = add i32 %54, 4
  store i32 %55, ptr %6, align 4
  br label %20, !llvm.loop !6

56:                                               ; preds = %45, %37, %30, %24
  %57 = load i32, ptr %3, align 4
  ret i32 %57
}

; Function Attrs: nounwind
declare void @_ZNSaIcEC1Ev(ptr noundef nonnull align 1 dereferenceable(1)) unnamed_addr #2

; Function Attrs: mustprogress noinline optnone uwtable
define linkonce_odr dso_local void @_ZNSt7__cxx1112basic_stringIcSt11char_traitsIcESaIcEEC2IS3_EEmcRKS3_(ptr noundef nonnull align 8 dereferenceable(32) %0, i64 noundef %1, i8 noundef signext %2, ptr noundef nonnull align 1 dereferenceable(1) %3) unnamed_addr #4 comdat align 2 personality ptr @__gxx_personality_v0 {
  %5 = alloca ptr, align 8
  %6 = alloca i64, align 8
  %7 = alloca i8, align 1
  %8 = alloca ptr, align 8
  %9 = alloca ptr, align 8
  %10 = alloca i32, align 4
  store ptr %0, ptr %5, align 8
  store i64 %1, ptr %6, align 8
  store i8 %2, ptr %7, align 1
  store ptr %3, ptr %8, align 8
  %11 = load ptr, ptr %5, align 8
  %12 = getelementptr inbounds %"class.std::__cxx11::basic_string", ptr %11, i32 0, i32 0
  %13 = call noundef ptr @_ZNSt7__cxx1112basic_stringIcSt11char_traitsIcESaIcEE13_M_local_dataEv(ptr noundef nonnull align 8 dereferenceable(32) %11)
  %14 = load ptr, ptr %8, align 8
  call void @_ZNSt7__cxx1112basic_stringIcSt11char_traitsIcESaIcEE12_Alloc_hiderC1EPcRKS3_(ptr noundef nonnull align 8 dereferenceable(8) %12, ptr noundef %13, ptr noundef nonnull align 1 dereferenceable(1) %14)
  %15 = load i64, ptr %6, align 8
  %16 = load i8, ptr %7, align 1
  invoke void @_ZNSt7__cxx1112basic_stringIcSt11char_traitsIcESaIcEE12_M_constructEmc(ptr noundef nonnull align 8 dereferenceable(32) %11, i64 noundef %15, i8 noundef signext %16)
          to label %17 unwind label %18

17:                                               ; preds = %4
  ret void

18:                                               ; preds = %4
  %19 = landingpad { ptr, i32 }
          cleanup
  %20 = extractvalue { ptr, i32 } %19, 0
  store ptr %20, ptr %9, align 8
  %21 = extractvalue { ptr, i32 } %19, 1
  store i32 %21, ptr %10, align 4
  call void @_ZNSt7__cxx1112basic_stringIcSt11char_traitsIcESaIcEE12_Alloc_hiderD2Ev(ptr noundef nonnull align 8 dereferenceable(8) %12) #3
  br label %22

22:                                               ; preds = %18
  %23 = load ptr, ptr %9, align 8
  %24 = load i32, ptr %10, align 4
  %25 = insertvalue { ptr, i32 } poison, ptr %23, 0
  %26 = insertvalue { ptr, i32 } %25, i32 %24, 1
  resume { ptr, i32 } %26
}

declare i32 @__gxx_personality_v0(...)

; Function Attrs: nounwind
declare void @_ZNSaIcED1Ev(ptr noundef nonnull align 1 dereferenceable(1)) unnamed_addr #2

; Function Attrs: mustprogress noinline nounwind optnone uwtable
define linkonce_odr dso_local void @_ZNSt8__detail18__to_chars_10_implIjEEvPcjT_(ptr noundef %0, i32 noundef %1, i32 noundef %2) #5 comdat {
  %4 = alloca ptr, align 8
  %5 = alloca i32, align 4
  %6 = alloca i32, align 4
  %7 = alloca i32, align 4
  %8 = alloca i32, align 4
  %9 = alloca i32, align 4
  store ptr %0, ptr %4, align 8
  store i32 %1, ptr %5, align 4
  store i32 %2, ptr %6, align 4
  %10 = load i32, ptr %5, align 4
  %11 = sub i32 %10, 1
  store i32 %11, ptr %7, align 4
  br label %12

12:                                               ; preds = %15, %3
  %13 = load i32, ptr %6, align 4
  %14 = icmp uge i32 %13, 100
  br i1 %14, label %15, label %41

15:                                               ; preds = %12
  %16 = load i32, ptr %6, align 4
  %17 = urem i32 %16, 100
  %18 = mul i32 %17, 2
  store i32 %18, ptr %8, align 4
  %19 = load i32, ptr %6, align 4
  %20 = udiv i32 %19, 100
  store i32 %20, ptr %6, align 4
  %21 = load i32, ptr %8, align 4
  %22 = add i32 %21, 1
  %23 = zext i32 %22 to i64
  %24 = getelementptr inbounds [201 x i8], ptr @_ZZNSt8__detail18__to_chars_10_implIjEEvPcjT_E8__digits, i64 0, i64 %23
  %25 = load i8, ptr %24, align 1
  %26 = load ptr, ptr %4, align 8
  %27 = load i32, ptr %7, align 4
  %28 = zext i32 %27 to i64
  %29 = getelementptr inbounds i8, ptr %26, i64 %28
  store i8 %25, ptr %29, align 1
  %30 = load i32, ptr %8, align 4
  %31 = zext i32 %30 to i64
  %32 = getelementptr inbounds [201 x i8], ptr @_ZZNSt8__detail18__to_chars_10_implIjEEvPcjT_E8__digits, i64 0, i64 %31
  %33 = load i8, ptr %32, align 1
  %34 = load ptr, ptr %4, align 8
  %35 = load i32, ptr %7, align 4
  %36 = sub i32 %35, 1
  %37 = zext i32 %36 to i64
  %38 = getelementptr inbounds i8, ptr %34, i64 %37
  store i8 %33, ptr %38, align 1
  %39 = load i32, ptr %7, align 4
  %40 = sub i32 %39, 2
  store i32 %40, ptr %7, align 4
  br label %12, !llvm.loop !8

41:                                               ; preds = %12
  %42 = load i32, ptr %6, align 4
  %43 = icmp uge i32 %42, 10
  br i1 %43, label %44, label %60

44:                                               ; preds = %41
  %45 = load i32, ptr %6, align 4
  %46 = mul i32 %45, 2
  store i32 %46, ptr %9, align 4
  %47 = load i32, ptr %9, align 4
  %48 = add i32 %47, 1
  %49 = zext i32 %48 to i64
  %50 = getelementptr inbounds [201 x i8], ptr @_ZZNSt8__detail18__to_chars_10_implIjEEvPcjT_E8__digits, i64 0, i64 %49
  %51 = load i8, ptr %50, align 1
  %52 = load ptr, ptr %4, align 8
  %53 = getelementptr inbounds i8, ptr %52, i64 1
  store i8 %51, ptr %53, align 1
  %54 = load i32, ptr %9, align 4
  %55 = zext i32 %54 to i64
  %56 = getelementptr inbounds [201 x i8], ptr @_ZZNSt8__detail18__to_chars_10_implIjEEvPcjT_E8__digits, i64 0, i64 %55
  %57 = load i8, ptr %56, align 1
  %58 = load ptr, ptr %4, align 8
  %59 = getelementptr inbounds i8, ptr %58, i64 0
  store i8 %57, ptr %59, align 1
  br label %66

60:                                               ; preds = %41
  %61 = load i32, ptr %6, align 4
  %62 = add i32 48, %61
  %63 = trunc i32 %62 to i8
  %64 = load ptr, ptr %4, align 8
  %65 = getelementptr inbounds i8, ptr %64, i64 0
  store i8 %63, ptr %65, align 1
  br label %66

66:                                               ; preds = %60, %44
  ret void
}

declare noundef nonnull align 1 dereferenceable(1) ptr @_ZNSt7__cxx1112basic_stringIcSt11char_traitsIcESaIcEEixEm(ptr noundef nonnull align 8 dereferenceable(32), i64 noundef) #1

declare noundef ptr @_ZNSt7__cxx1112basic_stringIcSt11char_traitsIcESaIcEE13_M_local_dataEv(ptr noundef nonnull align 8 dereferenceable(32)) #1

declare void @_ZNSt7__cxx1112basic_stringIcSt11char_traitsIcESaIcEE12_Alloc_hiderC1EPcRKS3_(ptr noundef nonnull align 8 dereferenceable(8), ptr noundef, ptr noundef nonnull align 1 dereferenceable(1)) unnamed_addr #1

declare void @_ZNSt7__cxx1112basic_stringIcSt11char_traitsIcESaIcEE12_M_constructEmc(ptr noundef nonnull align 8 dereferenceable(32), i64 noundef, i8 noundef signext) #1

; Function Attrs: mustprogress noinline nounwind optnone uwtable
define linkonce_odr dso_local void @_ZNSt7__cxx1112basic_stringIcSt11char_traitsIcESaIcEE12_Alloc_hiderD2Ev(ptr noundef nonnull align 8 dereferenceable(8) %0) unnamed_addr #5 comdat align 2 {
  %2 = alloca ptr, align 8
  store ptr %0, ptr %2, align 8
  %3 = load ptr, ptr %2, align 8
  call void @_ZNSaIcED2Ev(ptr noundef nonnull align 1 dereferenceable(1) %3) #3
  ret void
}

; Function Attrs: nounwind
declare void @_ZNSaIcED2Ev(ptr noundef nonnull align 1 dereferenceable(1)) unnamed_addr #2

; Function Attrs: noinline uwtable
define internal void @_GLOBAL__sub_I_test.cpp() #0 section ".text.startup" {
  call void @__cxx_global_var_init()
  ret void
}

attributes #0 = { noinline uwtable "frame-pointer"="all" "min-legal-vector-width"="0" "no-trapping-math"="true" "stack-protector-buffer-size"="8" "target-cpu"="x86-64" "target-features"="+cmov,+cx8,+fxsr,+mmx,+sse,+sse2,+x87" "tune-cpu"="generic" }
attributes #1 = { "frame-pointer"="all" "no-trapping-math"="true" "stack-protector-buffer-size"="8" "target-cpu"="x86-64" "target-features"="+cmov,+cx8,+fxsr,+mmx,+sse,+sse2,+x87" "tune-cpu"="generic" }
attributes #2 = { nounwind "frame-pointer"="all" "no-trapping-math"="true" "stack-protector-buffer-size"="8" "target-cpu"="x86-64" "target-features"="+cmov,+cx8,+fxsr,+mmx,+sse,+sse2,+x87" "tune-cpu"="generic" }
attributes #3 = { nounwind }
attributes #4 = { mustprogress noinline optnone uwtable "frame-pointer"="all" "min-legal-vector-width"="0" "no-trapping-math"="true" "stack-protector-buffer-size"="8" "target-cpu"="x86-64" "target-features"="+cmov,+cx8,+fxsr,+mmx,+sse,+sse2,+x87" "tune-cpu"="generic" }
attributes #5 = { mustprogress noinline nounwind optnone uwtable "frame-pointer"="all" "min-legal-vector-width"="0" "no-trapping-math"="true" "stack-protector-buffer-size"="8" "target-cpu"="x86-64" "target-features"="+cmov,+cx8,+fxsr,+mmx,+sse,+sse2,+x87" "tune-cpu"="generic" }
attributes #6 = { mustprogress noinline norecurse optnone uwtable "frame-pointer"="all" "min-legal-vector-width"="0" "no-trapping-math"="true" "stack-protector-buffer-size"="8" "target-cpu"="x86-64" "target-features"="+cmov,+cx8,+fxsr,+mmx,+sse,+sse2,+x87" "tune-cpu"="generic" }

!llvm.module.flags = !{!0, !1, !2, !3, !4}
!llvm.ident = !{!5}

!0 = !{i32 1, !"wchar_size", i32 4}
!1 = !{i32 8, !"PIC Level", i32 2}
!2 = !{i32 7, !"PIE Level", i32 2}
!3 = !{i32 7, !"uwtable", i32 2}
!4 = !{i32 7, !"frame-pointer", i32 2}
!5 = !{!"Ubuntu clang version 18.1.8 (++20240731024944+3b5b5c1ec4a3-1~exp1~20240731145000.144)"}
!6 = distinct !{!6, !7}
!7 = !{!"llvm.loop.mustprogress"}
!8 = distinct !{!8, !7}
